ccopy_reg
_reconstructor
p1
(cschrodinger.application.desmond.cmj
Engine
p2
c__builtin__
object
p3
NtRp4
(dp5
S'MSJ_FNAME'
p6
S'/scratch/pdewaal/desmond_setup_1/desmond_setup_1.msj'
p7
sS'set'
p8
NsS'version'
p9
S'3.8.5.18'
p10
sS'cfg'
p11
NsS'mmshare_ver'
p12
S'26017'
p13
sS'JOBID'
p14
S'neuschnee-0-555ab09f'
p15
sS'inp_fname'
p16
S'/scratch/pdewaal/desmond_setup_1/desmond_setup_1.mae'
p17
sS'notify'
p18
NsS'jobid'
p19
g15
sS'chkpt_fh'
p20
NsS'max_retry'
p21
I3
sS'schrodinger'
p22
S'/opt/schrodinger2014-2'
p23
sS'chkpt_fname'
p24
NsS'START_TIME'
p25
F1432006817.0508771
sS'base_dir_'
p26
NsS'stop_time'
p27
S'Mon May 18 23:40:53 2015'
p28
sS'cfg_content'
p29
NsS'out_fname'
p30
S'desmond_setup_1-out.cms'
p31
sS'macro_dict'
p32
(dp33
S'$SUBHOST'
p34
S'localhost'
p35
sS'$MASTERDATE'
p36
S'20150518'
p37
sS'$MASTERTIME'
p38
S'20150518T234017'
p39
sS'$MASTERJOBNAME'
p40
S'desmond_setup_1'
p41
sS'$USERNAME'
p42
S'pdewaal'
p43
ssS'username'
p44
g43
sS'msj_fname'
p45
NsS'description'
p46
S'Job launching command:\\n!DOLLAR!SCHRODINGER/utilities/multisim -JOBNAME desmond_setup_1 -m desmond_setup_1.msj desmond_setup_1.mae -o desmond_setup_1-out.cms -PROJ /home/pdewaal/.schrodinger/tmp/tproj06296a3181 -DISP append -VIEWNAME App -HOST localhost\\n'
p47
sS'start_time'
p48
F1432006817.0508771
sS'jobname'
p49
g41
sS'host'
p50
g35
sS'date'
p51
g37
sS'masterhost'
p52
S'localhost'
p53
sS'msj_content'
p54
S'task {\n  task = "desmond:auto"\n}\n\nbuild_geometry {\n  add_counterion = {\n     ion = Na\n     number = neutralize_system\n  }\n  box = {\n     shape = orthorhombic\n     size = [10.0 10.0 10.0 ]\n     size_type = buffer\n  }\n  membrane_box = {\n     lipid = POPC\n     size = [10.0 10.0 10.0 ]\n  }\n  rezero_system = false\n  salt = {\n     concentration = 0.15\n     negative_ion = Cl\n     positive_ion = Na\n  }\n  solvent = SPC\n}\n\nassign_forcefield {\n}\n\n'
p55
sS'stage'
p56
(lp57
g1
(cschrodinger.application.desmond.stage
Primer
p58
g3
NtRp59
g1
(cschrodinger.application.desmond.picklejar
PickleState
p60
g3
NtRp61
(dp62
S'_rls_job'
p63
(lp64
sS'NAME'
p65
S'primer'
p66
sS'_pre_job'
p67
(lp68
sS'_pre_jobre'
p69
(lp70
sS'_files4copy'
p71
(lp72
sS'_is_shown'
p73
I00
sS'_is_packed'
p74
I00
sS'_cap_job'
p75
(lp76
sS'_ID'
p77
I3
sS'_files4pack'
p78
(lp79
sS'_pack_fname'
p80
S''
sbbag1
(cschrodinger.application.desmond.stage
Task
p81
g3
NtRp82
g1
(g60
g3
NtRp83
(dp84
S'_systype'
p85
g1
(cschrodinger.application.desmond.systype
SysType
p86
g3
NtRp87
(dp88
S'rule'
p89
S'auto'
p90
sS'typer'
p91
cschrodinger.application.desmond.systype
DesmondTyper
p92
sbsg63
(lp93
sg65
S'task'
p94
sg67
(lp95
sg69
(lp96
g1
(cschrodinger.application.desmond.cmj
Job
p97
g3
NtRp98
(dp99
S'status'
p100
g1
(cschrodinger.application.desmond.cmj
JobStatus
p101
g3
NtRp102
(dp103
S'_code'
p104
I101
sS'_error'
p105
NsbsS'_has_run'
p106
I00
sS'parent'
p107
NsS'launch_timer'
p108
g1
(cschrodinger.application.desmond.cmj
RetryTimer
p109
g3
NtRp110
(dp111
S'_num_retry'
p112
I0
sS'_last_trial'
p113
NsS'_interval'
p114
F60
sbsS'host_list'
p115
Nsg49
NsS'other_parent'
p116
NsS'prefix'
p117
NsS'tag'
p118
NsS'output'
p119
g1
(cschrodinger.application.desmond.cmj
JobOutput
p120
g3
NtRp121
(dp122
S'_type'
p123
(dp124
g17
S'file'
p125
ssS'_file'
p126
(dp127
g17
NssS'_tag'
p128
(dp129
sS'_struct'
p130
NsbsS'permanent_restrain'
p131
NsS'systype'
p132
I201
sg56
I0
sS'_jctrl_hist'
p133
(lp134
S'removed_in_serialization'
p135
asS'what'
p136
NsS'jlaunch_cmd'
p137
NsS'num_cpu'
p138
I1
sg50
g1
(cschrodinger.job.jobcontrol
Host
p139
g3
NtRp140
(dp141
g22
(lp142
sS'_is_queue'
p143
I00
sS'processors'
p144
I1
sS'gpgpu'
p145
(lp146
sS'queue'
p147
NsS'user'
p148
NsS'env'
p149
(lp150
sS'qargs'
p151
NsS'_host'
p152
NsS'_lines'
p153
(lp154
sS'tmpdir'
p155
(lp156
sS'name'
p157
S'localhost'
p158
sbsS'need_host'
p159
I00
sS'permanent_group'
p160
NsS'use_hostcpu'
p161
I00
sS'jctrl'
p162
S'None'
p163
sS'input'
p164
g1
(cschrodinger.application.desmond.cmj
JobInput
p165
g3
NtRp166
(dp167
g123
(dp168
sg126
(dp169
sg128
(dp170
sg130
NsbsS'check_timer'
p171
g1
(g109
g3
NtRp172
(dp173
g112
I0
sg113
Nsg114
F60
sbsS'dir'
p174
Nsbasg71
(lp175
sg73
I01
sS'_systrait'
p176
(lp177
sg74
I01
sg75
(lp178
g1
(cschrodinger.application.desmond.stage
DesmondJob
p179
g3
NtRp180
(dp181
g100
g1
(g101
g3
NtRp182
(dp183
g104
I103
sg105
Nsbsg131
Nsg106
I00
sg107
g98
sg108
g1
(g109
g3
NtRp184
(dp185
g112
I0
sg113
Nsg114
F60
sbsg115
Nsg49
g94
sg116
Nsg117
Nsg118
Nsg119
g1
(g120
g3
NtRp186
(dp187
g123
(dp188
g17
g125
ssg126
(dp189
g17
Nssg128
(dp190
sg130
NsbsS'rid'
p191
Nsg138
I1
sg56
I1
sg133
(lp192
g135
asg136
Nsg94
S'regular'
p193
sg137
Nsg50
g1
(g139
g3
NtRp194
(dp195
g22
(lp196
sg143
I00
sg144
I1
sg145
(lp197
sg147
Nsg148
Nsg149
(lp198
sg151
Nsg152
Nsg153
(lp199
sg155
(lp200
sg157
g158
sbsg159
I01
sg160
Nsg161
I00
sS'gid'
p201
I1
sg162
S'None'
p202
sg164
g1
(g165
g3
NtRp203
(dp204
g123
(dp205
sg126
(dp206
sg128
(dp207
sg130
Nsbsg171
g1
(g109
g3
NtRp208
(dp209
g112
I0
sg113
Nsg114
F60
sbsg174
Nsbasg77
I0
sg78
(lp210
sg80
S'desmond_setup_1_1-out.tgz'
p211
sbbag1
(cschrodinger.application.desmond.stage
BuildGeometry
p212
g3
NtRp213
g1
(g60
g3
NtRp214
(dp215
g63
(lp216
sg65
S'build_geometry'
p217
sg67
(lp218
sg69
(lp219
g180
asg71
(lp220
sg73
I01
sg74
I01
sg75
(lp221
g1
(g179
g3
NtRp222
(dp223
g100
g1
(g101
g3
NtRp224
(dp225
g104
I103
sg105
Nsbsg131
Nsg106
I00
sg107
g180
sg108
g1
(g109
g3
NtRp226
(dp227
g112
I0
sg113
Nsg114
F60
sbsg115
Nsg49
S'desmond_setup_1_2'
p228
sg116
Nsg117
Nsg118
Nsg119
g1
(g120
g3
NtRp229
(dp230
g123
(dp231
S'/scratch/pdewaal/desmond_setup_1/desmond_setup_1_2/desmond_setup_1_2-in.log'
p232
g125
sS'/scratch/pdewaal/desmond_setup_1/desmond_setup_1_2/desmond_setup_1_2-out.mae'
p233
g125
ssg126
(dp234
g232
Nsg233
Nssg128
(dp235
sg130
Nsbsg191
Nsg138
I1
sg56
I2
sg133
(lp236
g135
asg136
Nsg94
g193
sg137
(lp237
S'/opt/schrodinger2014-2/utilities/system_builder'
p238
aS'-HOST'
p239
ag158
aS'desmond_setup_1_2-in.csb'
p240
asg50
g1
(g139
g3
NtRp241
(dp242
g22
(lp243
sg143
I00
sg144
I1
sg145
(lp244
sg147
Nsg148
Nsg149
(lp245
sg151
Nsg152
Nsg153
(lp246
sg155
(lp247
sg157
g158
sbsg159
I00
sg160
Nsg161
I00
sg201
I1
sg162
S'Job("neuschnee-0-555ab0a6")'
p248
sg164
g1
(g165
g3
NtRp249
(dp250
g123
(dp251
S'/scratch/pdewaal/desmond_setup_1/desmond_setup_1_2/desmond_setup_1_2-in.mae'
p252
g125
ssg126
(dp253
g252
Nssg128
(dp254
sg130
Nsbsg171
g1
(g109
g3
NtRp255
(dp256
g112
I0
sg113
Nsg114
F60
sbsg174
S'/scratch/pdewaal/desmond_setup_1/desmond_setup_1_2'
p257
sbasg77
I1
sg78
(lp258
sg80
S'desmond_setup_1_2-out.tgz'
p259
sbbag1
(cschrodinger.application.desmond.stage
AssignForcefield
p260
g3
NtRp261
g1
(g60
g3
NtRp262
(dp263
g63
(lp264
sg65
S'assign_forcefield'
p265
sg67
(lp266
sg69
(lp267
g222
asg71
(lp268
sg73
I01
sg74
I01
sg75
(lp269
g1
(g179
g3
NtRp270
(dp271
g100
g1
(g101
g3
NtRp272
(dp273
g104
I103
sg105
Nsbsg131
Nsg106
I01
sg107
g222
sg108
g1
(g109
g3
NtRp274
(dp275
g112
I0
sg113
Nsg114
F60
sbsg115
Nsg49
S'desmond_setup_1_3'
p276
sg116
Nsg117
Nsg118
Nsg119
g1
(g120
g3
NtRp277
(dp278
g123
(dp279
S'/scratch/pdewaal/desmond_setup_1/desmond_setup_1_3/desmond_setup_1_3-out.cms'
p280
g125
ssg126
(dp281
g280
Nssg128
(dp282
sg130
Nsbsg191
Nsg138
I1
sg56
I3
sg133
(lp283
g135
asg136
Nsg94
g193
sg137
g135
sg50
g1
(g139
g3
NtRp284
(dp285
g22
(lp286
sg143
I00
sg144
I1
sg145
(lp287
sg147
Nsg148
Nsg149
(lp288
sg151
Nsg152
Nsg153
(lp289
sg155
(lp290
sg157
g158
sbsg159
I00
sg160
Nsg161
I00
sg201
I1
sg162
S'None'
p291
sg164
g1
(g165
g3
NtRp292
(dp293
g123
(dp294
sg126
(dp295
sg128
(dp296
sg130
Nsbsg171
g1
(g109
g3
NtRp297
(dp298
g112
I0
sg113
Nsg114
F60
sbsg174
S'/scratch/pdewaal/desmond_setup_1/desmond_setup_1_3'
p299
sbasg77
I2
sg78
(lp300
sg80
S'desmond_setup_1_3-out.tgz'
p301
sbbag1
(cschrodinger.application.desmond.stage
Concluder
p302
g3
NtRp303
g1
(g60
g3
NtRp304
(dp305
g63
(lp306
sg65
S'concluder'
p307
sg67
(lp308
g270
asg69
(lp309
g270
asg71
(lp310
sg73
I00
sg74
I00
sg75
(lp311
sg77
I4
sg78
(lp312
sg80
S''
sbbasS'restart_stage'
p313
NsS'loglevel'
p314
S'quiet'
p315
sS'refrom'
p316
NsS'cpu'
p317
NsS'launch_dir'
p318
S'/home/pdewaal/Documents/AmberSystemBuilding/example'
p319
sS'time'
p320
g39
sS'base_dir'
p321
S'/scratch/pdewaal/desmond_setup_1'
p322
sS'maxjob'
p323
I1
sS'relay_arg'
p324
g1
(cschrodinger.utils.sea
Map
p325
g3
NtRp326
(dp327
S'HOST'
p328
S'localhost'
p329
sS'SUBHOST'
p330
S'localhost'
p331
sS'NICE'
p332
I01
sbsb.(dp1
cschrodinger.application.desmond.stage
Trajectory
p2
(dp3
scschrodinger.application.desmond.stage
SolvatePocket
p4
(dp5
scschrodinger.application.desmond.stage
CalcDdg
p6
(dp7
scschrodinger.application.desmond.stage
Simulate
p8
(dp9
scschrodinger.application.desmond.stage
AlignCore
p10
(dp11
scschrodinger.application.desmond.stage
Analysis
p12
(dp13
scschrodinger.application.desmond.stage
Stop
p14
(dp15
scschrodinger.application.desmond.stage
DesmondExtend
p16
(dp17
scschrodinger.application.desmond.stage
AssignForcefield
p18
(dp19
scschrodinger.application.desmond.cmj
StageBase
p20
(dp21
S'count'
p22
I5
sscschrodinger.application.desmond.stage
LambdaHopping
p23
(dp24
scschrodinger.application.desmond.stage
Concluder
p25
(dp26
scschrodinger.application.desmond.stage
Primer
p27
(dp28
scschrodinger.application.desmond.stage
Multisim
p29
(dp30
scschrodinger.application.desmond.stage
Task
p31
(dp32
S'gid'
p33
I1
sscschrodinger.application.desmond.stage
CovMapper
p34
(dp35
scschrodinger.application.desmond.stage
WaterMapPostAnalysis
p36
(dp37
scschrodinger.application.desmond.stage
ForcefieldBuilder
p38
(dp39
scschrodinger.application.desmond.stage
WaterMap
p40
(dp41
scschrodinger.application.desmond.stage
FepAnalysis
p42
(dp43
scschrodinger.application.desmond.stage
FepMapperReport
p44
(dp45
scschrodinger.application.desmond.stage
McproStageBase
p46
(dp47
scschrodinger.application.desmond.stage
Minimize
p48
(dp49
scschrodinger.application.desmond.stage
McproSystemBuilder
p50
(dp51
S'_PERT_TRANS'
p52
NsS'_PERT_ID'
p53
NsS'_is_inited'
p54
I00
sscschrodinger.application.desmond.stage
FepanaJob
p55
(dp56
S'id'
p57
I0
sscschrodinger.application.desmond.stage
PLAnalysis
p58
(dp59
scschrodinger.application.desmond.stage
BuildGeometry
p60
(dp61
scschrodinger.application.desmond.stage
Vrun
p62
(dp63
scschrodinger.application.desmond.stage
FepMapping
p64
(dp65
scschrodinger.application.desmond.picklejar
Picklable
p66
(dp67
scschrodinger.application.desmond.stage
FepVrun
p68
(dp69
scschrodinger.application.desmond.stage
FepMapper
p70
(dp71
scschrodinger.application.desmond.stage
FepJob
p72
(dp73
g57
I0
sscschrodinger.application.desmond.stage
Trim
p74
(dp75
scschrodinger.application.desmond.stage
Extern
p76
(dp77
scschrodinger.application.desmond.stage
FepAnalysis2
p78
(dp79
scschrodinger.application.desmond.stage
SystemBuilder
p80
(dp81
scschrodinger.application.desmond.stage
ReplicaExchange
p82
(dp83
scschrodinger.application.desmond.stage
McproSimulate
p84
(dp85
scschrodinger.application.desmond.stage
WaterMapCluster
p86
(dp87
s.